target datalayout = "e-m:e-p270:32:32-p271:32:32-p272:64:64-i64:64-i128:128-f80:128-n8:16:32:64-S128"
target triple = "x86_64-pc-linux-gnu"

%"class.icu_77::ResourceBundle" = type { %"class.icu_77::UObject", ptr, ptr }
%"class.icu_77::UObject" = type { ptr }
%struct.UResourceBundle = type { ptr, ptr, ptr, ptr, ptr, [64 x i8], i32, i32, i8, i8, i32, i32, i32, i32 }

@_ZN6icu_7714ResourceBundleC1EP15UResourceBundleR10UErrorCode = unnamed_addr alias void (ptr, ptr, ptr), ptr @_ZN6icu_7714ResourceBundleC2EP15UResourceBundleR10UErrorCode
@_ZN6icu_7714ResourceBundleD1Ev = unnamed_addr alias void (ptr), ptr @_ZN6icu_7714ResourceBundleD2Ev

; Function Attrs: inlinehint mustprogress nounwind uwtable
define internal noundef signext i8 @_ZL9U_SUCCESS10UErrorCode(i32 noundef %0) #3 {
  %2 = alloca i32, align 4
  store i32 %0, ptr %2, align 4, !tbaa !24
  %3 = load i32, ptr %2, align 4, !tbaa !24
  %4 = icmp sle i32 %3, 0
  %5 = zext i1 %4 to i8
  ret i8 %5
}

; Function Attrs: mustprogress uwtable
define void @_ZNK6icu_7714ResourceBundle3getEPKcR10UErrorCode(ptr dead_on_unwind noalias writable sret(%"class.icu_77::ResourceBundle") align 8 %0, ptr noundef nonnull align 8 dereferenceable(24) %1, ptr noundef %2, ptr noundef nonnull align 4 dereferenceable(4) %3) #1 align 2 personality ptr @__gxx_personality_v0 {
  %5 = alloca ptr, align 8
  %6 = alloca ptr, align 8
  %7 = alloca ptr, align 8
  %8 = alloca ptr, align 8
  %9 = alloca %struct.UResourceBundle, align 8
  %10 = alloca i1, align 1
  %11 = alloca ptr, align 8
  %12 = alloca i32, align 4
  store ptr %0, ptr %5, align 8
  store ptr %1, ptr %6, align 8, !tbaa !3
  store ptr %2, ptr %7, align 8, !tbaa !27
  store ptr %3, ptr %8, align 8, !tbaa !8
  %13 = load ptr, ptr %6, align 8
  call void @llvm.lifetime.start.p0(i64 136, ptr %9) #8
  call void @ures_initStackObject_77(ptr noundef %9)
  %14 = getelementptr inbounds nuw %"class.icu_77::ResourceBundle", ptr %13, i32 0, i32 1
  %15 = load ptr, ptr %14, align 8, !tbaa !16
  %16 = load ptr, ptr %7, align 8, !tbaa !27
  %17 = load ptr, ptr %8, align 8, !tbaa !8
  %18 = call ptr @ures_getByKey_77(ptr noundef %15, ptr noundef %16, ptr noundef %9, ptr noundef %17)
  store i1 false, ptr %10, align 1
  %19 = load ptr, ptr %8, align 8, !tbaa !8
  call void @_ZN6icu_7714ResourceBundleC1EP15UResourceBundleR10UErrorCode(ptr noundef nonnull align 8 dereferenceable(24) %0, ptr noundef %9, ptr noundef nonnull align 4 dereferenceable(4) %19)
  %20 = load ptr, ptr %8, align 8, !tbaa !8
  %21 = load i32, ptr %20, align 4, !tbaa !24
  %22 = invoke noundef signext i8 @_ZL9U_SUCCESS10UErrorCode(i32 noundef %21)
          to label %23 unwind label %27

23:                                               ; preds = %4
  %24 = icmp ne i8 %22, 0
  br i1 %24, label %25, label %31

25:                                               ; preds = %23
  invoke void @ures_close_77(ptr noundef %9)
          to label %26 unwind label %27

26:                                               ; preds = %25
  br label %31

27:                                               ; preds = %25, %4
  %28 = landingpad { ptr, i32 }
          cleanup
  %29 = extractvalue { ptr, i32 } %28, 0
  store ptr %29, ptr %11, align 8
  %30 = extractvalue { ptr, i32 } %28, 1
  store i32 %30, ptr %12, align 4
  call void @_ZN6icu_7714ResourceBundleD1Ev(ptr noundef nonnull align 8 dereferenceable(24) %0) #8
  call void @llvm.lifetime.end.p0(i64 136, ptr %9) #8
  br label %35

31:                                               ; preds = %26, %23
  store i1 true, ptr %10, align 1
  %32 = load i1, ptr %10, align 1
  br i1 %32, label %34, label %33

33:                                               ; preds = %31
  call void @_ZN6icu_7714ResourceBundleD1Ev(ptr noundef nonnull align 8 dereferenceable(24) %0) #8
  br label %34

34:                                               ; preds = %33, %31
  call void @llvm.lifetime.end.p0(i64 136, ptr %9) #8
  ret void

35:                                               ; preds = %27
  %36 = load ptr, ptr %11, align 8
  %37 = load i32, ptr %12, align 4
  %38 = insertvalue { ptr, i32 } poison, ptr %36, 0
  %39 = insertvalue { ptr, i32 } %38, i32 %37, 1
  resume { ptr, i32 } %39
}