; Function Attrs: mustprogress uwtable
define void @_ZNK6icu_7714ResourceBundle3getEPKcR10UErrorCode(ptr dead_on_unwind noalias writable sret(%"class.icu_77::ResourceBundle") align 8 %0, ptr noundef nonnull readonly align 8 captures(none) dereferenceable(24) %1, ptr noundef %2, ptr noundef nonnull align 4 dereferenceable(4) %3) local_unnamed_addr #1 align 2 personality ptr @__gxx_personality_v0 {
  %5 = alloca %struct.UResourceBundle, align 8
  call void @llvm.lifetime.start.p0(i64 136, ptr nonnull %5) #8
  call void @ures_initStackObject_77(ptr noundef nonnull %5)
  %6 = getelementptr inbounds nuw i8, ptr %1, i64 8
  %7 = load ptr, ptr %6, align 8, !tbaa !17
  %8 = call ptr @ures_getByKey_77(ptr noundef %7, ptr noundef %2, ptr noundef nonnull %5, ptr noundef nonnull %3)
  call void @_ZN6icu_7714ResourceBundleC1EP15UResourceBundleR10UErrorCode(ptr noundef nonnull align 8 dereferenceable(24) %0, ptr noundef nonnull %5, ptr noundef nonnull align 4 dereferenceable(4) %3)
  %9 = load i32, ptr %3, align 4, !tbaa !18
  %10 = icmp sgt i32 %9, 0
  br i1 %10, label %14, label %11

11:                                               ; preds = %4
  invoke void @ures_close_77(ptr noundef nonnull %5)
          to label %14 unwind label %12

12:                                               ; preds = %11
  %13 = landingpad { ptr, i32 }
          cleanup
  call void @_ZN6icu_7714ResourceBundleD1Ev(ptr noundef nonnull align 8 dereferenceable(24) %0) #8
  call void @llvm.lifetime.end.p0(i64 136, ptr nonnull %5) #8
  resume { ptr, i32 } %13

14:                                               ; preds = %4, %11
  call void @llvm.lifetime.end.p0(i64 136, ptr nonnull %5) #8
  ret void
}